(lp0
(lp1
F-72.9560536
aF41.310393
aa(lp2
F-72.9561051
aF41.3101545
aa(lp3
F-72.9563369
aF41.3097096
aa(lp4
F-72.9565944
aF41.3094904
aa(lp5
F-72.9567832
aF41.3091938
aa(lp6
F-72.9567918
aF41.3089811
aa(lp7
F-72.9567832
aF41.3087748
aa(lp8
F-72.9567918
aF41.3082977
aa(lp9
F-72.9568261
aF41.3081365
aa(lp10
F-72.9570407
aF41.3077045
aa(lp11
F-72.9572467
aF41.3075111
aa(lp12
F-72.9573411
aF41.3071049
aa(lp13
F-72.957384
aF41.3069115
aa(lp14
F-72.9573325
aF41.30666
aa(lp15
F-72.957178
aF41.3063054
aa(lp16
F-72.9571437
aF41.3061829
aa(lp17
F-72.957075
aF41.3059573
aa(lp18
F-72.9566888
aF41.30568
aa(lp19
F-72.9564227
aF41.3056478
aa(lp20
F-72.9561738
aF41.3057058
aa(lp21
F-72.9559764
aF41.3056736
aa(lp22
F-72.9557275
aF41.3055639
aa(lp23
F-72.9556588
aF41.3054543
aa(lp24
F-72.9555558
aF41.3051255
aa(lp25
F-72.9555558
aF41.3048741
aa(lp26
F-72.9556073
aF41.3047064
aa(lp27
F-72.9557532
aF41.304571
aa(lp28
F-72.9560536
aF41.304571
aa(lp29
F-72.9562939
aF41.3044872
aa(lp30
F-72.9563283
aF41.3043324
aa(lp31
F-72.9563025
aF41.3039391
aa(lp32
F-72.9563369
aF41.3037973
aa(lp33
F-72.9564313
aF41.3036296
aa(lp34
F-72.9566029
aF41.3032299
aa(lp35
F-72.9565944
aF41.3029784
aa(lp36
F-72.9563798
aF41.3027721
aa(lp37
F-72.9561738
aF41.3024755
aa(lp38
F-72.9560708
aF41.3021595
aa(lp39
F-72.9559764
aF41.301605
aa(lp40
F-72.9558562
aF41.3012762
aa(lp41
F-72.9554356
aF41.300928
aa(lp42
F-72.9550752
aF41.3006636
aa(lp43
F-72.9542083
aF41.3002831
aa(lp44
F-72.9533757
aF41.2999092
aa(lp45
F-72.9531096
aF41.2997544
aa(lp46
F-72.9529895
aF41.2995545
aa(lp47
F-72.952732
aF41.299432
aa(lp48
F-72.9525517
aF41.299432
aa(lp49
F-72.95232
aF41.2993933
aa(lp50
F-72.9522084
aF41.2992966
aa(lp51
F-72.9521397
aF41.2991031
aa(lp52
F-72.952011
aF41.2988001
aa(lp53
F-72.9519337
aF41.298497
aa(lp54
F-72.9516934
aF41.2981681
aa(lp55
F-72.9513673
aF41.297936
aa(lp56
F-72.9511098
aF41.2977103
aa(lp57
F-72.9508265
aF41.2974072
aa(lp58
F-72.9504918
aF41.2970074
aa(lp59
F-72.9500798
aF41.2965431
aa(lp60
F-72.9497966
aF41.2962272
aa(lp61
F-72.9497536
aF41.2960595
aa(lp62
F-72.9498996
aF41.2958854
aa(lp63
F-72.9501399
aF41.2958596
aa(lp64
F-72.9505004
aF41.2958144
aa(lp65
F-72.9506549
aF41.2957048
aa(lp66
F-72.950981
aF41.2952534
aa(lp67
F-72.9514016
aF41.2948923
aa(lp68
F-72.9515904
aF41.2946795
aa(lp69
F-72.9516763
aF41.294486
aa(lp70
F-72.951702
aF41.2942797
aa(lp71
F-72.9515475
aF41.2940927
aa(lp72
F-72.9509124
aF41.2938412
aa(lp73
F-72.9504317
aF41.2935703
aa(lp74
F-72.9503301
aF41.2934462
aa(lp75
F-72.9502257
aF41.2933188
aa(lp76
F-72.9499253
aF41.2929577
aa(lp77
F-72.9496678
aF41.2927771
aa(lp78
F-72.948964
aF41.2925385
aa(lp79
F-72.9481829
aF41.2922289
aa(lp80
F-72.9478825
aF41.2922483
aa(lp81
F-72.9476079
aF41.292474
aa(lp82
F-72.9472731
aF41.2928287
aa(lp83
F-72.9469899
aF41.2930157
aa(lp84
F-72.9466466
aF41.2930222
aa(lp85
F-72.9463633
aF41.2929319
aa(lp86
F-72.946226
aF41.2927771
aa(lp87
F-72.9462432
aF41.2925514
aa(lp88
F-72.9462432
aF41.2923192
aa(lp89
F-72.9461573
aF41.2921064
aa(lp90
F-72.9459084
aF41.2917711
aa(lp91
F-72.9454621
aF41.2914615
aa(lp92
F-72.945093
aF41.2912423
aa(lp93
F-72.9445952
aF41.2908682
aa(lp94
F-72.9437713
aF41.2901201
aa(lp95
F-72.9431189
aF41.2894752
aa(lp96
F-72.9427928
aF41.2892495
aa(lp97
F-72.9418658
aF41.2889528
aa(lp98
F-72.9410161
aF41.2887658
aa(lp99
F-72.9404496
aF41.2884756
aa(lp100
F-72.9402951
aF41.2883337
aa(lp101
F-72.9401664
aF41.2879919
aa(lp102
F-72.9399089
aF41.2877726
aa(lp103
F-72.9397544
aF41.2876436
aa(lp104
F-72.9397286
aF41.287463
aa(lp105
F-72.9398059
aF41.2872244
aa(lp106
F-72.9400805
aF41.2870245
aa(lp107
F-72.9403037
aF41.2868374
aa(lp108
F-72.9404496
aF41.2866762
aa(lp109
F-72.9405183
aF41.2862828
aa(lp110
F-72.9405097
aF41.285999
aa(lp111
F-72.9403638
aF41.2855217
aa(lp112
F-72.9401749
aF41.2850122
aa(lp113
F-72.9398316
aF41.2840641
aa(lp114
F-72.9396342
aF41.2835675
aa(lp115
F-72.9395484
aF41.2830966
aa(lp116
F-72.9394025
aF41.2827741
aa(lp117
F-72.9390334
aF41.2820969
aa(lp118
F-72.9386901
aF41.2817099
aa(lp119
F-72.938307
aF41.281299
aa(lp120
F-72.9560536
aF41.310393
aa(lp121
F-72.956296
aF41.310459
aa(lp122
F-72.956444
aF41.310479
aa(lp123
F-72.956758
aF41.310523
aa(lp124
F-72.956891
aF41.310531
aa(lp125
F-72.957041
aF41.310542
aa(lp126
F-72.957228
aF41.310567
aa(lp127
F-72.957791
aF41.310645
aa(lp128
F-72.957979
aF41.310671
aa(lp129
F-72.958147
aF41.310701
aa(lp130
F-72.958639
aF41.310712
aa(lp131
F-72.959673
aF41.310737
aa(lp132
F-72.960629
aF41.31076
aa(lp133
F-72.9611833
aF41.3107734
aa(lp134
F-72.961293
aF41.310776
aa(lp135
F-72.961776
aF41.310801
aa(lp136
F-72.963225
aF41.310879
aa(lp137
F-72.963708
aF41.310905
aa(lp138
F-72.965001
aF41.311046
aa(lp139
F-72.968882
aF41.311471
aa(lp140
F-72.970176
aF41.311613
aa(lp141
F-72.972486
aF41.311945
aa(lp142
F-72.973957
aF41.312064
aa(lp143
F-72.974678
aF41.312123
aa(lp144
F-72.975818
aF41.312215
aa(lp145
F-72.98535
aF41.312988
aa(lp146
F-72.987077
aF41.313129
aa(lp147
F-72.989148
aF41.313297
aa(lp148
F-72.990928
aF41.313456
aa(lp149
F-72.99212
aF41.313564
aa(lp150
F-72.994238
aF41.313754
aa(lp151
F-72.996268
aF41.313936
aa(lp152
F-72.998048
aF41.314097
aa(lp153
F-72.997857
aF41.315716
aa(lp154
F-72.997831
aF41.315945
aa(lp155
F-72.997297
aF41.320574
aa(lp156
F-72.997111
aF41.322194
aa(lp157
F-72.99705
aF41.322474
aa(lp158
F-72.996869
aF41.323317
aa(lp159
F-72.996809
aF41.323599
aa(lp160
F-72.996392
aF41.32375
aa(lp161
F-72.99639
aF41.32375
aa(lp162
F-72.996122
aF41.323894
aa(lp163
F-72.995917
aF41.324055
aa(lp164
F-72.99534
aF41.324565
aa(lp165
F-72.995266
aF41.324631
aa(lp166
F-72.99504
aF41.324893
aa(lp167
F-72.993301
aF41.326032
aa(lp168
F-72.98894
aF41.328893
aa(lp169
F-72.988786
aF41.3299
aa(lp170
F-72.988743
aF41.330186
aa(lp171
F-72.987296
aF41.33124
aa(lp172
F-72.985608
aF41.332554
aa(lp173
F-72.985254
aF41.332831
aa(lp174
F-72.985015
aF41.333017
aa(lp175
F-72.98331
aF41.337307
aa(lp176
F-72.982382
aF41.337793
aa(lp177
F-72.981273
aF41.338376
aa(lp178
F-72.980732
aF41.338629
aa(lp179
F-72.98047
aF41.338751
aa(lp180
F-72.979825
aF41.338998
aa(lp181
F-72.977892
aF41.339743
aa(lp182
F-72.977248
aF41.339992
aa(lp183
F-72.977166
aF41.340052
aa(lp184
F-72.976921
aF41.340236
aa(lp185
F-72.976918
aF41.340239
aa(lp186
F-72.97684
aF41.340297
aa(lp187
F-72.976767
aF41.340331
aa(lp188
F-72.976694
aF41.340365
aa(lp189
F-72.976285
aF41.340556
aa(lp190
F-72.974622
aF41.341334
aa(lp191
F-72.974068
aF41.341594
aa(lp192
F-72.973291
aF41.341854
aa(lp193
F-72.972566
aF41.342098
aa(lp194
F-72.970962
aF41.342636
aa(lp195
F-72.970186
aF41.342897
aa(lp196
F-72.97037
aF41.34317
aa(lp197
F-72.970924
aF41.34399
aa(lp198
F-72.971109
aF41.344264
aa(lp199
F-72.971469
aF41.34489
aa(lp200
F-72.971735
aF41.345353
aa(lp201
F-72.971876
aF41.345598
aa(lp202
F-72.972549
aF41.346769
aa(lp203
F-72.972909
aF41.347396
aa(lp204
F-72.972909
aF41.347396
aa(lp205
F-72.972832
aF41.347398
aa(lp206
F-72.972802
aF41.347399
aa(lp207
F-72.972727
aF41.347421
aa(lp208
F-72.972673
aF41.347455
aa(lp209
F-72.972645
aF41.347473
aa(lp210
F-72.972625
aF41.347484
aa(lp211
F-72.971714
aF41.34761
aa(lp212
F-72.971013
aF41.347681
aa(lp213
F-72.970855
aF41.347698
aa(lp214
F-72.969175
aF41.347882
aa(lp215
F-72.968329
aF41.347975
aa(lp216
F-72.968295
aF41.347972
aa(lp217
F-72.968193
aF41.347965
aa(lp218
F-72.96816
aF41.347963
aa(lp219
F-72.967967
aF41.347929
aa(lp220
F-72.967832
aF41.347906
aa(lp221
F-72.967718
aF41.347472
aa(lp222
F-72.967669
aF41.347284
aa(lp223
F-72.967651
aF41.34718
aa(lp224
F-72.9676
aF41.34687
aa(lp225
F-72.967583
aF41.346767
aa(lp226
F-72.967434
aF41.3465
aa(lp227
F-72.966988
aF41.345701
aa(lp228
F-72.96684
aF41.345435
aa(lp229
F-72.966376
aF41.345087
aa(lp230
F-72.966134
aF41.344905
aa(lp231
F-72.965459
aF41.344419
aa(lp232
F-72.964957
aF41.344085
aa(lp233
F-72.964951
aF41.344081
aa(lp234
F-72.96446
aF41.343788
aa(lp235
F-72.964417
aF41.344176
aa(lp236
F-72.96429
aF41.345341
aa(lp237
F-72.964248
aF41.34573
aa(lp238
F-72.964189
aF41.346396
aa(lp239
F-72.964187
aF41.346419
aa(lp240
F-72.963323
aF41.346515
aa(lp241
F-72.963124
aF41.346503
aa(lp242
F-72.962787
aF41.346281
aa(lp243
F-72.96271
aF41.346272
aa(lp244
F-72.962275
aF41.346288
aa(lp245
F-72.96206
aF41.346297
aa(lp246
F-72.961986
aF41.346744
aa(lp247
F-72.961789
aF41.347352
aa(lp248
F-72.961255
aF41.349007
aa(lp249
F-72.961076
aF41.349011
aa(lp250
F-72.960437
aF41.349028
aa(lp251
F-72.959643
aF41.34905
aa(lp252
F-72.958643
aF41.349079
aa(lp253
F-72.958412
aF41.349526
aa(lp254
F-72.957876
aF41.350219
aa(lp255
F-72.957745
aF41.35039
aa(lp256
F-72.957168
aF41.350353
aa(lp257
F-72.9568
aF41.35033
aa(lp258
F-72.955697
aF41.350262
aa(lp259
F-72.95533
aF41.35024
aa(lp260
F-72.955261
aF41.350235
aa(lp261
F-72.95477
aF41.350174
aa(lp262
F-72.954669
aF41.350162
aa(lp263
F-72.9533913
aF41.3495681
aa(lp264
F-72.9526805
aF41.3492343
aa(lp265
F-72.953216
aF41.348476
aa(lp266
F-72.9533369
aF41.3481616
aa(lp267
F-72.9535558
aF41.3476772
aa(lp268
F-72.9536014
aF41.3473441
aa(lp269
F-72.9533219
aF41.3468806
aa(lp270
F-72.952821
aF41.346849
aa(lp271
F-72.952452
aF41.346806
aa(lp272
F-72.95238
aF41.346803
aa(lp273
F-72.952049
aF41.346883
aa(lp274
F-72.951844
aF41.346675
aa(lp275
F-72.951525
aF41.346453
aa(lp276
F-72.951507
aF41.346283
aa(lp277
F-72.951454
aF41.345458
aa(lp278
F-72.951358
aF41.343947
aa(lp279
F-72.952867
aF41.343793
aa(lp280
F-72.95518
aF41.342346
aa(lp281
F-72.95518
aF41.342053
aa(lp282
F-72.955208
aF41.341842
aa(lp283
F-72.955211
aF41.341836
aa(lp284
F-72.955489
aF41.341436
aa(lp285
F-72.955916
aF41.340913
aa(lp286
F-72.956091
aF41.340757
aa(lp287
F-72.956377
aF41.340683
aa(lp288
F-72.956775
aF41.340698
aa(lp289
F-72.956784
aF41.340691
aa(lp290
F-72.956866
aF41.340614
aa(lp291
F-72.956959
aF41.340527
aa(lp292
F-72.957109
aF41.340334
aa(lp293
F-72.957171
aF41.340257
aa(lp294
F-72.957193
aF41.340245
aa(lp295
F-72.956991
aF41.339847
aa(lp296
F-72.955802
aF41.338869
aa(lp297
F-72.955556
aF41.338666
aa(lp298
F-72.953974
aF41.337366
aa(lp299
F-72.952753
aF41.337234
aa(lp300
F-72.951492
aF41.337098
aa(lp301
F-72.949138
aF41.336844
aa(lp302
F-72.9479643
aF41.3367174
aa(lp303
F-72.946848
aF41.336597
aa(lp304
F-72.946185
aF41.336538
aa(lp305
F-72.9461
aF41.33653
aa(lp306
F-72.945337
aF41.336463
aa(lp307
F-72.944437
aF41.336384
aa(lp308
F-72.943856
aF41.336332
aa(lp309
F-72.943109
aF41.336266
aa(lp310
F-72.942953
aF41.336248
aa(lp311
F-72.942488
aF41.336194
aa(lp312
F-72.942333
aF41.336177
aa(lp313
F-72.941974
aF41.336121
aa(lp314
F-72.9415086
aF41.3360488
aa(lp315
F-72.940897
aF41.335954
aa(lp316
F-72.940538
aF41.335899
aa(lp317
F-72.940542
aF41.335882
aa(lp318
F-72.940556
aF41.335834
aa(lp319
F-72.940562
aF41.335818
aa(lp320
F-72.940504
aF41.335814
aa(lp321
F-72.940032
aF41.335778
aa(lp322
F-72.938442
aF41.33566
aa(lp323
F-72.937913
aF41.335621
aa(lp324
F-72.937368
aF41.335562
aa(lp325
F-72.935733
aF41.335388
aa(lp326
F-72.935189
aF41.33533
aa(lp327
F-72.935132
aF41.335324
aa(lp328
F-72.93504
aF41.335315
aa(lp329
F-72.934962
aF41.335307
aa(lp330
F-72.934906
aF41.335302
aa(lp331
F-72.9347081
aF41.335286
aa(lp332
F-72.934086
aF41.335224
aa(lp333
F-72.933882
aF41.335205
aa(lp334
F-72.933438
aF41.335163
aa(lp335
F-72.932866
aF41.335111
aa(lp336
F-72.932107
aF41.33504
aa(lp337
F-72.931664
aF41.334999
aa(lp338
F-72.931418
aF41.334978
aa(lp339
F-72.930684
aF41.334916
aa(lp340
F-72.930439
aF41.334896
aa(lp341
F-72.930189
aF41.334874
aa(lp342
F-72.929441
aF41.33481
aa(lp343
F-72.929192
aF41.334789
aa(lp344
F-72.928975
aF41.334769
aa(lp345
F-72.928328
aF41.33471
aa(lp346
F-72.928112
aF41.334691
aa(lp347
F-72.927885
aF41.33467
aa(lp348
F-72.927204
aF41.334607
aa(lp349
F-72.926978
aF41.334587
aa(lp350
F-72.926561
aF41.334568
aa(lp351
F-72.925312
aF41.334511
aa(lp352
F-72.924896
aF41.334493
aa(lp353
F-72.923909
aF41.334424
aa(lp354
F-72.920949
aF41.334217
aa(lp355
F-72.919963
aF41.334149
aa(lp356
F-72.919729
aF41.334132
aa(lp357
F-72.919027
aF41.334082
aa(lp358
F-72.919011
aF41.334081
aa(lp359
F-72.918794
aF41.334065
aa(lp360
F-72.918663
aF41.33405
aa(lp361
F-72.91827
aF41.334005
aa(lp362
F-72.918139
aF41.333991
aa(lp363
F-72.917804
aF41.333972
aa(lp364
F-72.9168
aF41.333918
aa(lp365
F-72.916466
aF41.333901
aa(lp366
F-72.915658
aF41.333824
aa(lp367
F-72.913237
aF41.333594
aa(lp368
F-72.913234
aF41.333592
aa(lp369
F-72.912529
aF41.333192
aa(lp370
F-72.912284
aF41.333059
aa(lp371
F-72.91155
aF41.33266
aa(lp372
F-72.911306
aF41.332528
aa(lp373
F-72.911009
aF41.332345
aa(lp374
F-72.9108398
aF41.3322407
aa(lp375
F-72.910118
aF41.331796
aa(lp376
F-72.909822
aF41.331613
aa(lp377
F-72.909728
aF41.331546
aa(lp378
F-72.909672
aF41.331507
aa(lp379
F-72.909423
aF41.33139
aa(lp380
F-72.90932
aF41.331342
aa(lp381
F-72.909271
aF41.331309
aa(lp382
F-72.909124
aF41.33121
aa(lp383
F-72.909076
aF41.331178
aa(lp384
F-72.908966
aF41.331112
aa(lp385
F-72.908637
aF41.330915
aa(lp386
F-72.908528
aF41.33085
aa(lp387
F-72.9074335
aF41.3300898
aa(lp388
F-72.906498
aF41.329611
aa(lp389
F-72.902798
aF41.3273522
aa(lp390
F-72.902541
aF41.327195
aa(lp391
F-72.900088
aF41.327656
aa(lp392
F-72.899667
aF41.327736
aa(lp393
F-72.898844
aF41.327891
aa(lp394
F-72.897752
aF41.328098
aa(lp395
F-72.897501
aF41.328137
aa(lp396
F-72.89675
aF41.328255
aa(lp397
F-72.8965
aF41.328295
aa(lp398
F-72.895223
aF41.328571
aa(lp399
F-72.894904
aF41.328641
aa(lp400
F-72.894741
aF41.328669
aa(lp401
F-72.894252
aF41.328757
aa(lp402
F-72.894089
aF41.328786
aa(lp403
F-72.893552
aF41.328862
aa(lp404
F-72.89331
aF41.328897
aa(lp405
F-72.892895
aF41.328016
aa(lp406
F-72.89251
aF41.328152
aa(lp407
F-72.892
aF41.328333
aa(lp408
F-72.8916803
aF41.3284717
aa(lp409
F-72.8916803
aF41.3284717
aa(lp410
F-72.892066
aF41.3288794
aa(lp411
F-72.8924351
aF41.3292403
aa(lp412
F-72.8927097
aF41.3295497
aa(lp413
F-72.8927784
aF41.3298075
aa(lp414
F-72.8927183
aF41.3300653
aa(lp415
F-72.8924951
aF41.3302909
aa(lp416
F-72.892169
aF41.3305294
aa(lp417
F-72.8917742
aF41.3306841
aa(lp418
F-72.8912849
aF41.3307679
aa(lp419
F-72.8906927
aF41.3308839
aa(lp420
F-72.8901176
aF41.3309548
aa(lp421
F-72.8897314
aF41.3310579
aa(lp422
F-72.8893537
aF41.3311868
aa(lp423
F-72.8891649
aF41.3313995
aa(lp424
F-72.8890962
aF41.3317282
aa(lp425
F-72.8890619
aF41.3320633
aa(lp426
F-72.8890615
aF41.3326223
aa(lp427
F-72.8890615
aF41.3326223
aa(lp428
F-72.888845
aF41.332597
aa(lp429
F-72.888754
aF41.332597
aa(lp430
F-72.888483
aF41.332598
aa(lp431
F-72.888393
aF41.332599
aa(lp432
F-72.888147
aF41.332594
aa(lp433
F-72.887879
aF41.332638
aa(lp434
F-72.886347
aF41.332895
aa(lp435
F-72.885992
aF41.332955
aa(lp436
F-72.885837
aF41.332978
aa(lp437
F-72.885657
aF41.333015
aa(lp438
F-72.885116
aF41.333129
aa(lp439
F-72.884937
aF41.333167
aa(lp440
F-72.884735
aF41.333195
aa(lp441
F-72.884131
aF41.333279
aa(lp442
F-72.88393
aF41.333308
aa(lp443
F-72.883895
aF41.333314
aa(lp444
F-72.88379
aF41.333331
aa(lp445
F-72.883756
aF41.333338
aa(lp446
F-72.883663
aF41.333356
aa(lp447
F-72.883385
aF41.333412
aa(lp448
F-72.883293
aF41.333432
aa(lp449
F-72.883141
aF41.33346
aa(lp450
F-72.882688
aF41.333546
aa(lp451
F-72.882538
aF41.333575
aa(lp452
F-72.881986
aF41.33366
aa(lp453
F-72.881888
aF41.333675
aa(lp454
F-72.881866
aF41.333678
aa(lp455
F-72.881812
aF41.333687
aa(lp456
F-72.881735
aF41.333699
aa(lp457
F-72.879853
aF41.333989
aa(lp458
F-72.879253
aF41.334082
aa(lp459
F-72.879183
aF41.334093
aa(lp460
F-72.879133
aF41.334092
aa(lp461
F-72.87858
aF41.334076
aa(lp462
F-72.876771
aF41.334024
aa(lp463
F-72.876547
aF41.334018
aa(lp464
F-72.876169
aF41.334007
aa(lp465
F-72.874922
aF41.33416
aa(lp466
F-72.871183
aF41.334621
aa(lp467
F-72.869937
aF41.334775
aa(lp468
F-72.869661
aF41.334831
aa(lp469
F-72.869183
aF41.334994
aa(lp470
F-72.866949
aF41.335755
aa(lp471
F-72.866205
aF41.33601
aa(lp472
F-72.86502
aF41.336088
aa(lp473
F-72.86429
aF41.336136
aa(lp474
F-72.863166
aF41.336211
aa(lp475
F-72.861482
aF41.336463
aa(lp476
F-72.860309
aF41.336639
aa(lp477
F-72.860309
aF41.336639
aa(lp478
F-72.860411
aF41.336397
aa(lp479
F-72.860718
aF41.335672
aa(lp480
F-72.860821
aF41.335431
aa(lp481
F-72.861093
aF41.33484
aa(lp482
F-72.861911
aF41.333068
aa(lp483
F-72.862185
aF41.332478
aa(lp484
F-72.862265
aF41.332297
aa(lp485
F-72.862504
aF41.331754
aa(lp486
F-72.862585
aF41.331574
aa(lp487
F-72.862916
aF41.330758
aa(lp488
F-72.863911
aF41.328313
aa(lp489
F-72.864244
aF41.327498
aa(lp490
F-72.86465
aF41.32674
aa(lp491
F-72.865871
aF41.324465
aa(lp492
F-72.866278
aF41.323708
aa(lp493
F-72.866328
aF41.323586
aa(lp494
F-72.866481
aF41.32322
aa(lp495
F-72.866532
aF41.323099
aa(lp496
F-72.866662
aF41.322802
aa(lp497
F-72.867053
aF41.321914
aa(lp498
F-72.867184
aF41.321618
aa(lp499
F-72.867218
aF41.321495
aa(lp500
F-72.867257
aF41.321355
aa(lp501
F-72.867297
aF41.32112
aa(lp502
F-72.867319
aF41.320995
aa(lp503
F-72.867369
aF41.320882
aa(lp504
F-72.86752
aF41.320545
aa(lp505
F-72.867571
aF41.320433
aa(lp506
F-72.867602
aF41.320297
aa(lp507
F-72.867698
aF41.319888
aa(lp508
F-72.86773
aF41.319753
aa(lp509
F-72.868307
aF41.318363
aa(lp510
F-72.8689477
aF41.3168221
aa(lp511
F-72.869423
aF41.315679
aa(lp512
F-72.870102
aF41.314224
aa(lp513
F-72.870739
aF41.312862
aa(lp514
F-72.871047
aF41.312214
aa(lp515
F-72.871973
aF41.310273
aa(lp516
F-72.872283
aF41.309626
aa(lp517
F-72.872391
aF41.309013
aa(lp518
F-72.872431
aF41.308794
aa(lp519
F-72.8729
aF41.308082
aa(lp520
F-72.873334
aF41.30742
aa(lp521
F-72.873511
aF41.307153
aa(lp522
F-72.873533
aF41.30712
aa(lp523
F-72.873677
aF41.306901
aa(lp524
F-72.874185
aF41.306114
aa(lp525
F-72.875708
aF41.303756
aa(lp526
F-72.876217
aF41.30297
aa(lp527
F-72.876481
aF41.302561
aa(lp528
F-72.877276
aF41.301333
aa(lp529
F-72.877541
aF41.300925
aa(lp530
F-72.878122
aF41.300027
aa(lp531
F-72.879426
aF41.298014
aa(lp532
F-72.87986
aF41.297331
aa(lp533
F-72.880435
aF41.296429
aa(lp534
F-72.880851
aF41.295789
aa(lp535
F-72.8821
aF41.293869
aa(lp536
F-72.882517
aF41.29323
aa(lp537
F-72.882592
aF41.293137
aa(lp538
F-72.887508
aF41.2854528
aa(lp539
F-72.887554
aF41.283717
aa(lp540
F-72.887554
aF41.283466
aa(lp541
F-72.887529
aF41.283235
aa(lp542
F-72.887456
aF41.282545
aa(lp543
F-72.887432
aF41.282315
aa(lp544
F-72.887497
aF41.281273
aa(lp545
F-72.887649
aF41.278854
aa(lp546
F-72.887531
aF41.278158
aa(lp547
F-72.887357
aF41.27713
aa(lp548
F-72.887362
aF41.276993
aa(lp549
F-72.887379
aF41.276585
aa(lp550
F-72.887386
aF41.276449
aa(lp551
F-72.887413
aF41.276365
aa(lp552
F-72.887473
aF41.27618
aa(lp553
F-72.887427
aF41.276128
aa(lp554
F-72.88737
aF41.276062
aa(lp555
F-72.887325
aF41.2758
aa(lp556
F-72.887314
aF41.275733
aa(lp557
F-72.887309
aF41.275536
aa(lp558
F-72.887305
aF41.275003
aa(lp559
F-72.887304
aF41.274738
aa(lp560
F-72.887294
aF41.27427
aa(lp561
F-72.887267
aF41.272866
aa(lp562
F-72.887258
aF41.272399
aa(lp563
F-72.887255
aF41.272061
aa(lp564
F-72.887255
aF41.272006
aa(lp565
F-72.887227
aF41.268949
aa(lp566
F-72.887136
aF41.258601
aa(lp567
F-72.8871485
aF41.2583651
aa(lp568
F-72.887129
aF41.257773
aa(lp569
F-72.887127
aF41.256411
aa(lp570
F-72.88711
aF41.255578
aa(lp571
F-72.88721
aF41.2553671
aa(lp572
F-72.88721
aF41.2553671
aa(lp573
F-72.887056
aF41.254987
aa(lp574
F-72.887063
aF41.25491
aa(lp575
F-72.886871
aF41.254283
aa(lp576
F-72.886851
aF41.254101
aa(lp577
F-72.886849
aF41.254086
aa(lp578
F-72.886832
aF41.253924
aa(lp579
F-72.8869891
aF41.2537789
aa(lp580
F-72.8871314
aF41.2536862
aa(lp581
F-72.8871314
aF41.2536862
aa(lp582
F-72.8872327
aF41.2535982
aa(lp583
F-72.887275
aF41.253486
aa(lp584
F-72.887348
aF41.253393
aa(lp585
F-72.887347
aF41.253294
aa(lp586
F-72.887239
aF41.253121
aa(lp587
F-72.887254
aF41.252977
aa(lp588
F-72.887443
aF41.252773
aa(lp589
F-72.887923
aF41.252363
aa(lp590
F-72.888362
aF41.251902
aa(lp591
F-72.888625
aF41.251634
aa(lp592
F-72.889094
aF41.251159
aa(lp593
F-72.889203
aF41.251048
aa(lp594
F-72.88948
aF41.251003
aa(lp595
F-72.889619
aF41.25098
aa(lp596
F-72.889853
aF41.251013
aa(lp597
F-72.889891
aF41.251019
aa(lp598
F-72.890976
aF41.251175
aa(lp599
F-72.891051
aF41.251186
aa(lp600
F-72.891354
aF41.2512
aa(lp601
F-72.891401
aF41.251202
aa(lp602
F-72.891475
aF41.251169
aa(lp603
F-72.891947
aF41.250966
aa(lp604
F-72.892373
aF41.250587
aa(lp605
F-72.892555
aF41.250363
aa(lp606
F-72.892586
aF41.250184
aa(lp607
F-72.892641
aF41.25
aa(lp608
F-72.892681
aF41.249787
aa(lp609
F-72.892688
aF41.249754
aa(lp610
F-72.892903
aF41.24964
aa(lp611
F-72.893269
aF41.249765
aa(lp612
F-72.893776
aF41.24995
aa(lp613
F-72.894317
aF41.249918
aa(lp614
F-72.894689
aF41.249865
aa(lp615
F-72.894736
aF41.249859
aa(lp616
F-72.895027
aF41.249735
aa(lp617
F-72.89508
aF41.249606
aa(lp618
F-72.895213
aF41.249284
aa(lp619
F-72.895927
aF41.248972
aa(lp620
F-72.896584
aF41.248649
aa(lp621
F-72.8969412
aF41.2485301
aa(lp622
F-72.8977136
aF41.2485495
aa(lp623
F-72.8982715
aF41.2487947
aa(lp624
F-72.898838
aF41.248747
aa(lp625
F-72.899202
aF41.248697
aa(lp626
F-72.899561
aF41.248497
aa(lp627
F-72.899787
aF41.248274
aa(lp628
F-72.899748
aF41.247984
aa(lp629
F-72.899666
aF41.247836
aa(lp630
F-72.899651
aF41.24781
aa(lp631
F-72.899609
aF41.247732
aa(lp632
F-72.899595
aF41.247707
aa(lp633
F-72.899626
aF41.247648
aa(lp634
F-72.899656
aF41.247589
aa(lp635
F-72.899576
aF41.247501
aa(lp636
F-72.899612
aF41.24738
aa(lp637
F-72.899816
aF41.247172
aa(lp638
F-72.899853
aF41.247067
aa(lp639
F-72.899863
aF41.247028
aa(lp640
F-72.899874
aF41.246991
aa(lp641
F-72.900376
aF41.246733
aa(lp642
F-72.9005722
aF41.2465175
aa(lp643
F-72.9005934
aF41.2464253
aa(lp644
F-72.9005934
aF41.2464253
aa(lp645
F-72.9006614
aF41.246519
aa(lp646
F-72.9007431
aF41.2466317
aa(lp647
F-72.9007884
aF41.2466913
aa(lp648
F-72.900877
aF41.2468199
aa(lp649
F-72.9011576
aF41.2470301
aa(lp650
F-72.9016688
aF41.2473201
aa(lp651
F-72.9022983
aF41.2475679
aa(lp652
F-72.9025534
aF41.247649
aa(lp653
F-72.9027576
aF41.2476974
aa(lp654
F-72.9031347
aF41.2477049
aa(lp655
F-72.9033023
aF41.2477547
aa(lp656
F-72.9036363
aF41.247804
aa(lp657
F-72.9038546
aF41.2477914
aa(lp658
F-72.9041192
aF41.2476831
aa(lp659
F-72.9040486
aF41.2482074
aa(lp660
F-72.9040676
aF41.2486655
aa(lp661
F-72.904108
aF41.2490738
aa(lp662
F-72.9039454
aF41.2492183
aa(lp663
F-72.9038812
aF41.2494205
aa(lp664
F-72.9039429
aF41.2500456
aa(lp665
F-72.9040136
aF41.2504915
aa(lp666
F-72.903817
aF41.2510165
aa(lp667
F-72.9036043
aF41.251472
aa(lp668
F-72.9034358
aF41.2516862
aa(lp669
F-72.9033201
aF41.2520353
aa(lp670
F-72.902882
aF41.252175
aa(lp671
F-72.9026477
aF41.2524941
aa(lp672
F-72.9026573
aF41.2527874
aa(lp673
F-72.9028098
aF41.2529745
aa(lp674
F-72.9025996
aF41.2530962
aa(lp675
F-72.9021035
aF41.2533154
aa(lp676
F-72.9016781
aF41.2535296
aa(lp677
F-72.9011755
aF41.2538925
aa(lp678
F-72.9008518
aF41.2543566
aa(lp679
F-72.9008205
aF41.2550599
aa(lp680
F-72.9006431
aF41.2547509
aa(lp681
F-72.9005263
aF41.2545929
aa(lp682
F-72.9004282
aF41.2545192
aa(lp683
F-72.8993261
aF41.2548246
aa(lp684
F-72.899144
aF41.255123
aa(lp685
F-72.8988965
aF41.2555303
aa(lp686
F-72.8987144
aF41.2555514
aa(lp687
F-72.8984809
aF41.2553723
aa(lp688
F-72.8982474
aF41.2553828
aa(lp689
F-72.8963887
aF41.2559235
aa(lp690
F-72.8960244
aF41.2560955
aa(lp691
F-72.8959927
aF41.2561483
aa(lp692
F-72.8960169
aF41.2562229
aa(lp693
F-72.8959498
aF41.2562572
aa(lp694
F-72.8959015
aF41.2561019
aa(lp695
F-72.8957326
aF41.2560999
aa(lp696
F-72.8955207
aF41.2561665
aa(lp697
F-72.8952524
aF41.2562088
aa(lp698
F-72.8952283
aF41.2561544
aa(lp699
F-72.8949091
aF41.256233
aa(lp700
F-72.8946811
aF41.2563419
aa(lp701
F-72.8945984
aF41.2564238
aa(lp702
F-72.894314
aF41.2567648
aa(lp703
F-72.8940884
aF41.2571101
aa(lp704
F-72.8940492
aF41.2571817
aa(lp705
F-72.8939472
aF41.2573679
aa(lp706
F-72.893745
aF41.2577372
aa(lp707
F-72.8934795
aF41.2585095
aa(lp708
F-72.8934415
aF41.2588618
aa(lp709
F-72.8933902
aF41.2593375
aa(lp710
F-72.8933856
aF41.259439
aa(lp711
F-72.8934232
aF41.259435
aa(lp712
F-72.8934607
aF41.2596668
aa(lp713
F-72.8937209
aF41.2602637
aa(lp714
F-72.8939594
aF41.2608456
aa(lp715
F-72.8942379
aF41.261398
aa(lp716
F-72.8945032
aF41.2618764
aa(lp717
F-72.8950773
aF41.2625742
aa(lp718
F-72.895655
aF41.2632642
aa(lp719
F-72.8962566
aF41.2639362
aa(lp720
F-72.896675
aF41.2643637
aa(lp721
F-72.8970705
aF41.2647517
aa(lp722
F-72.8975212
aF41.2650738
aa(lp723
F-72.8977268
aF41.2652376
aa(lp724
F-72.8978411
aF41.2652551
aa(lp725
F-72.8980037
aF41.2654266
aa(lp726
F-72.8984573
aF41.2659035
aa(lp727
F-72.8986587
aF41.2660775
aa(lp728
F-72.8989345
aF41.266278
aa(lp729
F-72.8990341
aF41.2664002
aa(lp730
F-72.8989791
aF41.266412
aa(lp731
F-72.8991731
aF41.2667569
aa(lp732
F-72.8993189
aF41.2667798
aa(lp733
F-72.9002343
aF41.267491
aa(lp734
F-72.9005973
aF41.2677261
aa(lp735
F-72.9011303
aF41.2681035
aa(lp736
F-72.9028181
aF41.2690005
aa(lp737
F-72.9032352
aF41.2692995
aa(lp738
F-72.9041158
aF41.2697262
aa(lp739
F-72.9050697
aF41.2700862
aa(lp740
F-72.9057456
aF41.2703126
aa(lp741
F-72.9058538
aF41.2704374
aa(lp742
F-72.9057302
aF41.2706581
aa(lp743
F-72.9054908
aF41.2709221
aa(lp744
F-72.905189
aF41.271638
aa(lp745
F-72.904733
aF41.2718445
aa(lp746
F-72.9047703
aF41.2720735
aa(lp747
F-72.9048344
aF41.2721764
aa(lp748
F-72.9045315
aF41.2722683
aa(lp749
F-72.9045897
aF41.2724303
aa(lp750
F-72.9045892
aF41.2724637
aa(lp751
F-72.9045507
aF41.2725165
aa(lp752
F-72.9042195
aF41.2725391
aa(lp753
F-72.9041276
aF41.2730877
aa(lp754
F-72.9037015
aF41.2734196
aa(lp755
F-72.903313
aF41.2742617
aa(lp756
F-72.9032865
aF41.2749846
aa(lp757
F-72.9034101
aF41.275462
aa(lp758
F-72.9040807
aF41.2766889
aa(lp759
F-72.9035866
aF41.2770271
aa(lp760
F-72.9034895
aF41.2774648
aa(lp761
F-72.9042925
aF41.2791624
aa(lp762
F-72.905166
aF41.2812246
aa(lp763
F-72.9055558
aF41.2822136
aa(lp764
F-72.9058054
aF41.2824396
aa(lp765
F-72.9061279
aF41.2827763
aa(lp766
F-72.906131
aF41.2831012
aa(lp767
F-72.9079749
aF41.2833078
aa(lp768
F-72.9078247
aF41.2834212
aa(lp769
F-72.9060415
aF41.2832444
aa(lp770
F-72.9057031
aF41.2848545
aa(lp771
F-72.9051737
aF41.2885951
aa(lp772
F-72.9058433
aF41.289144
aa(lp773
F-72.9078395
aF41.2893842
aa(lp774
F-72.9080391
aF41.2894283
aa(lp775
F-72.907969
aF41.2895746
aa(lp776
F-72.9056508
aF41.2893435
aa(lp777
F-72.9056821
aF41.2898591
aa(lp778
F-72.9078261
aF41.2901393
aa(lp779
F-72.9077375
aF41.2904316
aa(lp780
F-72.9069798
aF41.2919972
aa(lp781
F-72.9055759
aF41.2922262
aa(lp782
F-72.9053184
aF41.2936449
aa(lp783
F-72.9043657
aF41.2936385
aa(lp784
F-72.9042541
aF41.2942317
aa(lp785
F-72.9067432
aF41.2944768
aa(lp786
F-72.9066917
aF41.2946574
aa(lp787
F-72.9041254
aF41.2943736
aa(lp788
F-72.9040481
aF41.2947863
aa(lp789
F-72.9050867
aF41.2950056
aa(lp790
F-72.9052326
aF41.2951604
aa(lp791
F-72.9051382
aF41.2953022
aa(lp792
F-72.9044926
aF41.2959315
aa(lp793
F-72.9042541
aF41.2961534
aa(lp794
F-72.9037219
aF41.2961663
aa(lp795
F-72.9035908
aF41.2967639
aa(lp796
F-72.9052321
aF41.2976772
aa(lp797
F-72.9063913
aF41.2983717
aa(lp798
F-72.9063913
aF41.2983717
aa(lp799
F-72.9067089
aF41.2981331
aa(lp800
F-72.9072668
aF41.29783
aa(lp801
F-72.9074875
aF41.2977637
aa(lp802
F-72.9077219
aF41.2977766
aa(lp803
F-72.9085177
aF41.297634
aa(lp804
F-72.9087688
aF41.2976753
aa(lp805
F-72.9089662
aF41.2986812
aa(lp806
F-72.9092494
aF41.2986941
aa(lp807
F-72.9096958
aF41.2986812
aa(lp808
F-72.9101421
aF41.2986038
aa(lp809
F-72.910185
aF41.2981718
aa(lp810
F-72.9102107
aF41.297714
aa(lp811
F-72.9103295
aF41.2975813
aa(lp812
F-72.9103209
aF41.2970332
aa(lp813
F-72.9107844
aF41.2970268
aa(lp814
F-72.9109733
aF41.2969043
aa(lp815
F-72.9132049
aF41.2969107
aa(lp816
F-72.9144752
aF41.2963174
aa(lp817
F-72.9151961
aF41.2969494
aa(lp818
F-72.9163236
aF41.295715
aa(lp819
F-72.9165008
aF41.2955178
aa(lp820
F-72.9167102
aF41.295292
aa(lp821
F-72.9170461
aF41.2948241
aa(lp822
F-72.9169409
aF41.294768
aa(lp823
F-72.9169948
aF41.2945107
aa(lp824
F-72.9166995
aF41.2942337
aa(lp825
F-72.9167554
aF41.2941966
aa(lp826
F-72.916898
aF41.2942078
aa(lp827
F-72.9173206
aF41.2941018
aa(lp828
F-72.9174201
aF41.2939087
aa(lp829
F-72.9183475
aF41.2929033
aa(lp830
F-72.9189741
aF41.2924003
aa(lp831
F-72.9196264
aF41.2917554
aa(lp832
F-72.9203388
aF41.2908977
aa(lp833
F-72.9212657
aF41.2900335
aa(lp834
F-72.9215146
aF41.2897001
aa(lp835
F-72.9221841
aF41.2889371
aa(lp836
F-72.9225446
aF41.2884534
aa(lp837
F-72.9229051
aF41.2879955
aa(lp838
F-72.9233458
aF41.2870786
aa(lp839
F-72.9238179
aF41.286524
aa(lp840
F-72.9241183
aF41.2864401
aa(lp841
F-72.9239911
aF41.2862849
aa(lp842
F-72.9241354
aF41.285692
aa(lp843
F-72.92435
aF41.2852663
aa(lp844
F-72.9246161
aF41.2850793
aa(lp845
F-72.9250023
aF41.2849761
aa(lp846
F-72.9256032
aF41.2844149
aa(lp847
F-72.9259551
aF41.2842343
aa(lp848
F-72.9262469
aF41.2842021
aa(lp849
F-72.9266846
aF41.2843698
aa(lp850
F-72.9272425
aF41.2847826
aa(lp851
F-72.9276116
aF41.2848277
aa(lp852
F-72.9273713
aF41.2845633
aa(lp853
F-72.9271824
aF41.2842924
aa(lp854
F-72.9269679
aF41.2839183
aa(lp855
F-72.9260323
aF41.2840796
aa(lp856
F-72.9258177
aF41.2833765
aa(lp857
F-72.9258263
aF41.2832088
aa(lp858
F-72.9259293
aF41.2830927
aa(lp859
F-72.9261439
aF41.2830927
aa(lp860
F-72.9263585
aF41.283125
aa(lp861
F-72.9271052
aF41.2827186
aa(lp862
F-72.9271537
aF41.282554
aa(lp863
F-72.9272137
aF41.2824379
aa(lp864
F-72.9273768
aF41.2823283
aa(lp865
F-72.9274455
aF41.2822702
aa(lp866
F-72.9276515
aF41.2822186
aa(lp867
F-72.9278231
aF41.2821993
aa(lp868
F-72.927866
aF41.282109
aa(lp869
F-72.9285012
aF41.2816446
aa(lp870
F-72.9286128
aF41.2815801
aa(lp871
F-72.9285527
aF41.2815156
aa(lp872
F-72.9291621
aF41.2811737
aa(lp873
F-72.9292393
aF41.2812576
aa(lp874
F-72.9295312
aF41.2811608
aa(lp875
F-72.9294711
aF41.2809673
aa(lp876
F-72.9295633
aF41.280937
aa(lp877
F-72.9290827
aF41.2803694
aa(lp878
F-72.9294603
aF41.2801953
aa(lp879
F-72.9298912
aF41.2808108
aa(lp880
F-72.9300376
aF41.2807545
aa(lp881
F-72.9306985
aF41.2805932
aa(lp882
F-72.930878
aF41.280485
aa(lp883
F-72.930965
aF41.280446
aa(lp884
F-72.931329
aF41.28043
aa(lp885
F-72.931613
aF41.280322
aa(lp886
F-72.931802
aF41.280299
aa(lp887
F-72.932224
aF41.280288
aa(lp888
F-72.93258
aF41.280241
aa(lp889
F-72.9328786
aF41.2802449
aa(lp890
F-72.9330588
aF41.280361
aa(lp891
F-72.9330931
aF41.2805287
aa(lp892
F-72.932974
aF41.280734
aa(lp893
F-72.932871
aF41.280926
aa(lp894
F-72.932908
aF41.281179
aa(lp895
F-72.932973
aF41.2814833
aa(lp896
F-72.9332476
aF41.281651
aa(lp897
F-72.9335137
aF41.2818316
aa(lp898
F-72.933854
aF41.281948
aa(lp899
F-72.9345866
aF41.2819477
aa(lp900
F-72.935156
aF41.281827
aa(lp901
F-72.935601
aF41.281754
aa(lp902
F-72.9362775
aF41.2816897
aa(lp903
F-72.936595
aF41.2817155
aa(lp904
F-72.9369727
aF41.2818445
aa(lp905
F-72.9372559
aF41.2819155
aa(lp906
F-72.9375477
aF41.282038
aa(lp907
F-72.9377795
aF41.2820638
aa(lp908
F-72.937878
aF41.281984
aa(lp909
F-72.9378803
aF41.2818013
aa(lp910
F-72.937958
aF41.281711
aa(lp911
F-72.938155
aF41.2817497
aa(lp912
F-72.938307
aF41.281299
aa.